	.file	"main.c"
	.intel_syntax noprefix
	.text
	.section	.rodata
.LC0:
	.string	"Process Id: %d\n"
	.text
	.globl	main
	.type	main, @function
main:
.LFB0:
	.cfi_startproc
	endbr32
	lea	ecx, 4[esp]
	.cfi_def_cfa 1, 0
	and	esp, -16
	push	DWORD PTR -4[ecx]
	push	ebp
	.cfi_escape 0x10,0x5,0x2,0x75,0
	mov	ebp, esp
	push	ebx
	push	ecx
	.cfi_escape 0xf,0x3,0x75,0x78,0x6
	.cfi_escape 0x10,0x3,0x2,0x75,0x7c
	sub	esp, 16
	call	__x86.get_pc_thunk.bx
	add	ebx, OFFSET FLAT:_GLOBAL_OFFSET_TABLE_
	call	pid@PLT
	mov	DWORD PTR -12[ebp], eax
	sub	esp, 8
	push	DWORD PTR -12[ebp]
	lea	eax, .LC0@GOTOFF[ebx]
	push	eax
	call	printf@PLT
	add	esp, 16
	mov	eax, 0
	lea	esp, -8[ebp]
	pop	ecx
	.cfi_restore 1
	.cfi_def_cfa 1, 0
	pop	ebx
	.cfi_restore 3
	pop	ebp
	.cfi_restore 5
	lea	esp, -4[ecx]
	.cfi_def_cfa 4, 4
	ret
	.cfi_endproc
.LFE0:
	.size	main, .-main
	.section	.text.__x86.get_pc_thunk.bx,"axG",@progbits,__x86.get_pc_thunk.bx,comdat
	.globl	__x86.get_pc_thunk.bx
	.hidden	__x86.get_pc_thunk.bx
	.type	__x86.get_pc_thunk.bx, @function
__x86.get_pc_thunk.bx:
.LFB1:
	.cfi_startproc
	mov	ebx, DWORD PTR [esp]
	ret
	.cfi_endproc
.LFE1:
	.ident	"GCC: (Ubuntu 9.3.0-10ubuntu2) 9.3.0"
	.section	.note.GNU-stack,"",@progbits
	.section	.note.gnu.property,"a"
	.align 4
	.long	 1f - 0f
	.long	 4f - 1f
	.long	 5
0:
	.string	 "GNU"
1:
	.align 4
	.long	 0xc0000002
	.long	 3f - 2f
2:
	.long	 0x3
3:
	.align 4
4:
